; Function Attrs: mustprogress uwtable
define noundef ptr @_ZNK5faiss19VStackInvertedLists9get_codesEm(ptr noundef nonnull readonly align 8 captures(none) dereferenceable(80) %0, i64 noundef %1) unnamed_addr #2 align 2 {
  %3 = tail call fastcc noundef i32 @_ZN5faiss12_GLOBAL__N_117translate_list_noEPKNS_19VStackInvertedListsEl(ptr noundef %0, i64 noundef %1)
  %4 = getelementptr inbounds nuw i8, ptr %0, i64 56
  %5 = zext nneg i32 %3 to i64
  %6 = load ptr, ptr %4, align 8, !tbaa !47
  %7 = getelementptr inbounds nuw i64, ptr %6, i64 %5
  %8 = load i64, ptr %7, align 8, !tbaa !7
  %9 = sub i64 %1, %8
  %10 = getelementptr inbounds nuw i8, ptr %0, i64 32
  %11 = load ptr, ptr %10, align 8, !tbaa !53
  %12 = getelementptr inbounds nuw ptr, ptr %11, i64 %5
  %13 = load ptr, ptr %12, align 8, !tbaa !58
  %14 = load ptr, ptr %13, align 8, !tbaa !4
  %15 = getelementptr inbounds nuw i8, ptr %14, i64 24
  %16 = load ptr, ptr %15, align 8
  %17 = tail call noundef ptr %16(ptr noundef nonnull align 8 dereferenceable(25) %13, i64 noundef %9)
  ret ptr %17
}